; ModuleID = '1961.c'
source_filename = "1961.c"
target datalayout = "e-m:e-p270:32:32-p271:32:32-p272:64:64-i64:64-f80:128-n8:16:32:64-S128"
target triple = "x86_64-pc-linux-gnu"

@.str = private unnamed_addr constant [6 x i8] c"%d,%d\00", align 1
@.str.1 = private unnamed_addr constant [3 x i8] c"%d\00", align 1
@.str.2 = private unnamed_addr constant [7 x i8] c"%d+%d\0A\00", align 1
@.str.3 = private unnamed_addr constant [4 x i8] c"No\0A\00", align 1

; Function Attrs: noinline nounwind uwtable
define dso_local i32 @main() #0 {
  %1 = alloca i32, align 4
  %2 = alloca [100 x [100 x i32]], align 16
  %3 = alloca i32, align 4
  %4 = alloca i32, align 4
  %5 = alloca i32, align 4
  %6 = alloca i32, align 4
  %7 = alloca i32, align 4
  %8 = alloca i32, align 4
  %9 = alloca i32, align 4
  %10 = alloca i32, align 4
  store i32 0, i32* %1, align 4
  store i32 0, i32* %9, align 4
  store i32 0, i32* %10, align 4
  %11 = call i32 (i8*, ...) @__isoc99_scanf(i8* getelementptr inbounds ([6 x i8], [6 x i8]* @.str, i64 0, i64 0), i32* %7, i32* %8)
  store i32 0, i32* %3, align 4
  br label %12

12:                                               ; preds = %33, %0
  %13 = load i32, i32* %3, align 4
  %14 = load i32, i32* %7, align 4
  %15 = icmp slt i32 %13, %14
  br i1 %15, label %16, label %36

16:                                               ; preds = %12
  store i32 0, i32* %6, align 4
  br label %17

17:                                               ; preds = %29, %16
  %18 = load i32, i32* %6, align 4
  %19 = load i32, i32* %8, align 4
  %20 = icmp slt i32 %18, %19
  br i1 %20, label %21, label %32

21:                                               ; preds = %17
  %22 = load i32, i32* %3, align 4
  %23 = sext i32 %22 to i64
  %24 = getelementptr inbounds [100 x [100 x i32]], [100 x [100 x i32]]* %2, i64 0, i64 %23
  %25 = load i32, i32* %6, align 4
  %26 = sext i32 %25 to i64
  %27 = getelementptr inbounds [100 x i32], [100 x i32]* %24, i64 0, i64 %26
  %28 = call i32 (i8*, ...) @__isoc99_scanf(i8* getelementptr inbounds ([3 x i8], [3 x i8]* @.str.1, i64 0, i64 0), i32* %27)
  br label %29

29:                                               ; preds = %21
  %30 = load i32, i32* %6, align 4
  %31 = add nsw i32 %30, 1
  store i32 %31, i32* %6, align 4
  br label %17

32:                                               ; preds = %17
  br label %33

33:                                               ; preds = %32
  %34 = load i32, i32* %3, align 4
  %35 = add nsw i32 %34, 1
  store i32 %35, i32* %3, align 4
  br label %12

36:                                               ; preds = %12
  store i32 0, i32* %3, align 4
  br label %37

37:                                               ; preds = %143, %36
  %38 = load i32, i32* %3, align 4
  %39 = load i32, i32* %7, align 4
  %40 = icmp slt i32 %38, %39
  br i1 %40, label %41, label %146

41:                                               ; preds = %37
  store i32 0, i32* %6, align 4
  br label %42

42:                                               ; preds = %128, %41
  %43 = load i32, i32* %6, align 4
  %44 = load i32, i32* %8, align 4
  %45 = icmp slt i32 %43, %44
  br i1 %45, label %46, label %131

46:                                               ; preds = %42
  store i32 0, i32* %4, align 4
  br label %47

47:                                               ; preds = %76, %46
  %48 = load i32, i32* %4, align 4
  %49 = load i32, i32* %8, align 4
  %50 = icmp slt i32 %48, %49
  br i1 %50, label %51, label %79

51:                                               ; preds = %47
  %52 = load i32, i32* %4, align 4
  %53 = load i32, i32* %6, align 4
  %54 = icmp eq i32 %52, %53
  br i1 %54, label %55, label %56

55:                                               ; preds = %51
  br label %76

56:                                               ; preds = %51
  %57 = load i32, i32* %3, align 4
  %58 = sext i32 %57 to i64
  %59 = getelementptr inbounds [100 x [100 x i32]], [100 x [100 x i32]]* %2, i64 0, i64 %58
  %60 = load i32, i32* %6, align 4
  %61 = sext i32 %60 to i64
  %62 = getelementptr inbounds [100 x i32], [100 x i32]* %59, i64 0, i64 %61
  %63 = load i32, i32* %62, align 4
  %64 = load i32, i32* %3, align 4
  %65 = sext i32 %64 to i64
  %66 = getelementptr inbounds [100 x [100 x i32]], [100 x [100 x i32]]* %2, i64 0, i64 %65
  %67 = load i32, i32* %4, align 4
  %68 = sext i32 %67 to i64
  %69 = getelementptr inbounds [100 x i32], [100 x i32]* %66, i64 0, i64 %68
  %70 = load i32, i32* %69, align 4
  %71 = icmp sgt i32 %63, %70
  br i1 %71, label %72, label %75

72:                                               ; preds = %56
  %73 = load i32, i32* %9, align 4
  %74 = add nsw i32 %73, 1
  store i32 %74, i32* %9, align 4
  br label %75

75:                                               ; preds = %72, %56
  br label %76

76:                                               ; preds = %75, %55
  %77 = load i32, i32* %4, align 4
  %78 = add nsw i32 %77, 1
  store i32 %78, i32* %4, align 4
  br label %47

79:                                               ; preds = %47
  store i32 0, i32* %5, align 4
  br label %80

80:                                               ; preds = %109, %79
  %81 = load i32, i32* %5, align 4
  %82 = load i32, i32* %7, align 4
  %83 = icmp slt i32 %81, %82
  br i1 %83, label %84, label %112

84:                                               ; preds = %80
  %85 = load i32, i32* %5, align 4
  %86 = load i32, i32* %3, align 4
  %87 = icmp eq i32 %85, %86
  br i1 %87, label %88, label %89

88:                                               ; preds = %84
  br label %109

89:                                               ; preds = %84
  %90 = load i32, i32* %3, align 4
  %91 = sext i32 %90 to i64
  %92 = getelementptr inbounds [100 x [100 x i32]], [100 x [100 x i32]]* %2, i64 0, i64 %91
  %93 = load i32, i32* %6, align 4
  %94 = sext i32 %93 to i64
  %95 = getelementptr inbounds [100 x i32], [100 x i32]* %92, i64 0, i64 %94
  %96 = load i32, i32* %95, align 4
  %97 = load i32, i32* %5, align 4
  %98 = sext i32 %97 to i64
  %99 = getelementptr inbounds [100 x [100 x i32]], [100 x [100 x i32]]* %2, i64 0, i64 %98
  %100 = load i32, i32* %6, align 4
  %101 = sext i32 %100 to i64
  %102 = getelementptr inbounds [100 x i32], [100 x i32]* %99, i64 0, i64 %101
  %103 = load i32, i32* %102, align 4
  %104 = icmp slt i32 %96, %103
  br i1 %104, label %105, label %108

105:                                              ; preds = %89
  %106 = load i32, i32* %10, align 4
  %107 = add nsw i32 %106, 1
  store i32 %107, i32* %10, align 4
  br label %108

108:                                              ; preds = %105, %89
  br label %109

109:                                              ; preds = %108, %88
  %110 = load i32, i32* %5, align 4
  %111 = add nsw i32 %110, 1
  store i32 %111, i32* %5, align 4
  br label %80

112:                                              ; preds = %80
  %113 = load i32, i32* %9, align 4
  %114 = load i32, i32* %8, align 4
  %115 = sub nsw i32 %114, 1
  %116 = icmp eq i32 %113, %115
  br i1 %116, label %117, label %126

117:                                              ; preds = %112
  %118 = load i32, i32* %10, align 4
  %119 = load i32, i32* %7, align 4
  %120 = sub nsw i32 %119, 1
  %121 = icmp eq i32 %118, %120
  br i1 %121, label %122, label %126

122:                                              ; preds = %117
  %123 = load i32, i32* %3, align 4
  %124 = load i32, i32* %6, align 4
  %125 = call i32 (i8*, ...) @printf(i8* getelementptr inbounds ([7 x i8], [7 x i8]* @.str.2, i64 0, i64 0), i32 %123, i32 %124)
  br label %131

126:                                              ; preds = %117, %112
  store i32 0, i32* %9, align 4
  store i32 0, i32* %10, align 4
  br label %127

127:                                              ; preds = %126
  br label %128

128:                                              ; preds = %127
  %129 = load i32, i32* %6, align 4
  %130 = add nsw i32 %129, 1
  store i32 %130, i32* %6, align 4
  br label %42

131:                                              ; preds = %122, %42
  %132 = load i32, i32* %9, align 4
  %133 = load i32, i32* %8, align 4
  %134 = sub nsw i32 %133, 1
  %135 = icmp eq i32 %132, %134
  br i1 %135, label %136, label %142

136:                                              ; preds = %131
  %137 = load i32, i32* %10, align 4
  %138 = load i32, i32* %7, align 4
  %139 = sub nsw i32 %138, 1
  %140 = icmp eq i32 %137, %139
  br i1 %140, label %141, label %142

141:                                              ; preds = %136
  br label %146

142:                                              ; preds = %136, %131
  br label %143

143:                                              ; preds = %142
  %144 = load i32, i32* %3, align 4
  %145 = add nsw i32 %144, 1
  store i32 %145, i32* %3, align 4
  br label %37

146:                                              ; preds = %141, %37
  %147 = load i32, i32* %9, align 4
  %148 = icmp eq i32 %147, 0
  br i1 %148, label %149, label %154

149:                                              ; preds = %146
  %150 = load i32, i32* %10, align 4
  %151 = icmp eq i32 %150, 0
  br i1 %151, label %152, label %154

152:                                              ; preds = %149
  %153 = call i32 (i8*, ...) @printf(i8* getelementptr inbounds ([4 x i8], [4 x i8]* @.str.3, i64 0, i64 0))
  br label %154

154:                                              ; preds = %152, %149, %146
  ret i32 0
}

declare dso_local i32 @__isoc99_scanf(i8*, ...) #1

declare dso_local i32 @printf(i8*, ...) #1


!llvm.module.flags = !{!0}
!llvm.ident = !{!1}

!0 = !{i32 1, !"wchar_size", i32 4}
!1 = !{!"clang version 10.0.0-4ubuntu1 "}
